; Function Attrs: mustprogress uwtable
define internal fastcc void @_ZL12getDBcontextP6pj_ctx(ptr dead_on_unwind noalias nonnull writable writeonly align 8 captures(none) %0, ptr noundef nonnull %1) unnamed_addr #0 personality ptr @__gxx_personality_v0 {
  %3 = alloca %"class.dropbox::oxygen::nn", align 8
  call void @llvm.lifetime.start.p0(i64 16, ptr nonnull %3) #30
  %4 = invoke noundef ptr @_ZN6pj_ctx15get_cpp_contextEv(ptr noundef nonnull align 8 dereferenceable(572) %1)
          to label %5 unwind label %10

5:                                                ; preds = %2
  invoke void @_ZN14projCppContext18getDatabaseContextEv(ptr dead_on_unwind nonnull writable sret(%"class.dropbox::oxygen::nn") align 8 %3, ptr noundef nonnull align 8 dereferenceable(272) %4)
          to label %_ZN7dropbox6oxygen2nnISt10shared_ptrIN5osgeo4proj2io15DatabaseContextEEED2Ev.exit unwind label %10

_ZN7dropbox6oxygen2nnISt10shared_ptrIN5osgeo4proj2io15DatabaseContextEEED2Ev.exit: ; preds = %5
  %6 = load ptr, ptr %3, align 8, !tbaa !139
  store ptr %6, ptr %0, align 8, !tbaa !139
  %7 = getelementptr inbounds nuw i8, ptr %0, i64 8
  %8 = getelementptr inbounds nuw i8, ptr %3, i64 8
  %9 = load ptr, ptr %8, align 8, !tbaa !144
  store ptr %9, ptr %7, align 8, !tbaa !144
  call void @llvm.lifetime.end.p0(i64 16, ptr nonnull %3) #30
  br label %25

10:                                               ; preds = %5, %2
  %11 = landingpad { ptr, i32 }
          cleanup
          catch ptr @_ZTISt9exception
  %12 = extractvalue { ptr, i32 } %11, 1
  call void @llvm.lifetime.end.p0(i64 16, ptr nonnull %3) #30
  %13 = call i32 @llvm.eh.typeid.for.p0(ptr nonnull @_ZTISt9exception) #30
  %14 = icmp eq i32 %12, %13
  br i1 %14, label %15, label %26

15:                                               ; preds = %10
  %16 = extractvalue { ptr, i32 } %11, 0
  %17 = call ptr @__cxa_begin_catch(ptr %16) #30
  %18 = load ptr, ptr %17, align 8, !tbaa !3
  %19 = getelementptr inbounds nuw i8, ptr %18, i64 16
  %20 = load ptr, ptr %19, align 8
  %21 = call noundef ptr %20(ptr noundef nonnull align 8 dereferenceable(8) %17) #30
  invoke void (ptr, i32, ptr, ...) @_Z6pj_logP6pj_ctxiPKcz(ptr noundef nonnull %1, i32 noundef 2, ptr noundef nonnull @.str.22, ptr noundef %21)
          to label %22 unwind label %23

22:                                               ; preds = %15
  call void @llvm.memset.p0.i64(ptr noundef nonnull align 8 dereferenceable(16) %0, i8 0, i64 16, i1 false)
  call void @__cxa_end_catch()
  br label %25

23:                                               ; preds = %15
  %24 = landingpad { ptr, i32 }
          cleanup
  invoke void @__cxa_end_catch()
          to label %26 unwind label %27

25:                                               ; preds = %22, %_ZN7dropbox6oxygen2nnISt10shared_ptrIN5osgeo4proj2io15DatabaseContextEEED2Ev.exit
  ret void

26:                                               ; preds = %23, %10
  %.merged = phi { ptr, i32 } [ %11, %10 ], [ %24, %23 ]
  resume { ptr, i32 } %.merged

27:                                               ; preds = %23
  %28 = landingpad { ptr, i32 }
          catch ptr null
  %29 = extractvalue { ptr, i32 } %28, 0
  call void @__clang_call_terminate(ptr %29) #32
  unreachable
}